libusermetricsoutput.so.1 libusermetricsoutput1 #MINVER#
 _ZN17UserMetricsOutput10ColorTheme10endChangedERK6QColor@Base 1.0.1
 _ZN17UserMetricsOutput10ColorTheme11mainChangedERK6QColor@Base 1.0.1
 _ZN17UserMetricsOutput10ColorTheme11qt_metacallEN11QMetaObject4CallEiPPv@Base 1.0.1
 _ZN17UserMetricsOutput10ColorTheme11qt_metacastEPKc@Base 1.0.1
 _ZN17UserMetricsOutput10ColorTheme12startChangedERK6QColor@Base 1.0.1
 _ZN17UserMetricsOutput10ColorTheme16staticMetaObjectE@Base 1.0.1
 _ZN17UserMetricsOutput10ColorThemeC1EP7QObject@Base 1.0.1
 _ZN17UserMetricsOutput10ColorThemeC2EP7QObject@Base 1.0.1
 _ZN17UserMetricsOutput10ColorThemeD0Ev@Base 1.0.1
 _ZN17UserMetricsOutput10ColorThemeD1Ev@Base 1.0.1
 _ZN17UserMetricsOutput10ColorThemeD2Ev@Base 1.0.1
 _ZN17UserMetricsOutput11UserMetrics11dataChangedEv@Base 1.0.1
 _ZN17UserMetricsOutput11UserMetrics11getInstanceEv@Base 1.0.1
 _ZN17UserMetricsOutput11UserMetrics11qt_metacallEN11QMetaObject4CallEiPPv@Base 1.0.1
 _ZN17UserMetricsOutput11UserMetrics11qt_metacastEPKc@Base 1.0.1
 _ZN17UserMetricsOutput11UserMetrics12dataAppearedEv@Base 1.0.1
 _ZN17UserMetricsOutput11UserMetrics12labelChangedERK7QString@Base 1.0.1
 _ZN17UserMetricsOutput11UserMetrics14nextDataSourceEv@Base 1.0.1
 _ZN17UserMetricsOutput11UserMetrics15dataDisappearedEv@Base 1.0.1
 _ZN17UserMetricsOutput11UserMetrics15usernameChangedERK7QString@Base 1.0.1
 _ZN17UserMetricsOutput11UserMetrics16staticMetaObjectE@Base 1.0.1
 _ZN17UserMetricsOutput11UserMetrics17currentDayChangedEi@Base 1.0.1
 _ZN17UserMetricsOutput11UserMetrics17dataAboutToAppearEv@Base 1.0.1
 _ZN17UserMetricsOutput11UserMetrics17dataAboutToChangeEv@Base 1.0.1
 _ZN17UserMetricsOutput11UserMetrics17firstColorChangedEPNS_10ColorThemeE@Base 1.0.1
 _ZN17UserMetricsOutput11UserMetrics17firstMonthChangedEP18QAbstractItemModel@Base 1.0.1
 _ZN17UserMetricsOutput11UserMetrics18readyForDataChangeEv@Base 1.0.1
 _ZN17UserMetricsOutput11UserMetrics18secondColorChangedEPNS_10ColorThemeE@Base 1.0.1
 _ZN17UserMetricsOutput11UserMetrics18secondMonthChangedEP18QAbstractItemModel@Base 1.0.1
 _ZN17UserMetricsOutput11UserMetrics20dataAboutToDisappearEv@Base 1.0.1
 _ZN17UserMetricsOutput11UserMetricsC1EP7QObject@Base 1.0.1
 _ZN17UserMetricsOutput11UserMetricsC2EP7QObject@Base 1.0.1
 _ZN17UserMetricsOutput11UserMetricsD0Ev@Base 1.0.1
 _ZN17UserMetricsOutput11UserMetricsD1Ev@Base 1.0.1
 _ZN17UserMetricsOutput11UserMetricsD2Ev@Base 1.0.1
 _ZNK17UserMetricsOutput10ColorTheme10metaObjectEv@Base 1.0.1
 _ZNK17UserMetricsOutput11UserMetrics10metaObjectEv@Base 1.0.1
 _ZTIN17UserMetricsOutput10ColorThemeE@Base 1.0.1
 _ZTIN17UserMetricsOutput11UserMetricsE@Base 1.0.1
 _ZTSN17UserMetricsOutput10ColorThemeE@Base 1.0.1
 _ZTSN17UserMetricsOutput11UserMetricsE@Base 1.0.1
 _ZTVN17UserMetricsOutput10ColorThemeE@Base 1.0.1
 _ZTVN17UserMetricsOutput11UserMetricsE@Base 1.0.1
